; Function Attrs: nounwind uwtable
define void @zend_emit_recorded_errors() local_unnamed_addr #0 {
  store i8 0, ptr getelementptr inbounds (%struct._zend_executor_globals, ptr @executor_globals, i64 0, i32 72), align 8
  %1 = load i32, ptr getelementptr inbounds (%struct._zend_executor_globals, ptr @executor_globals, i64 0, i32 73), align 4
  %.not = icmp eq i32 %1, 0
  br i1 %.not, label %._crit_edge, label %.lr.ph

.lr.ph:                                           ; preds = %0, %.lr.ph
  %indvars.iv = phi i64 [ %indvars.iv.next, %.lr.ph ], [ 0, %0 ]
  %2 = load ptr, ptr getelementptr inbounds (%struct._zend_executor_globals, ptr @executor_globals, i64 0, i32 74), align 8
  %3 = getelementptr inbounds ptr, ptr %2, i64 %indvars.iv
  %4 = load ptr, ptr %3, align 8
  %5 = load i32, ptr %4, align 8
  %6 = getelementptr inbounds i8, ptr %4, i64 8
  %7 = load ptr, ptr %6, align 8
  %8 = getelementptr inbounds i8, ptr %4, i64 4
  %9 = load i32, ptr %8, align 4
  %10 = getelementptr inbounds i8, ptr %4, i64 16
  %11 = load ptr, ptr %10, align 8
  tail call void @zend_error_zstr_at(i32 noundef %5, ptr noundef %7, i32 noundef %9, ptr noundef %11)
  %indvars.iv.next = add nuw nsw i64 %indvars.iv, 1
  %12 = load i32, ptr getelementptr inbounds (%struct._zend_executor_globals, ptr @executor_globals, i64 0, i32 73), align 4
  %13 = zext i32 %12 to i64
  %14 = icmp ult i64 %indvars.iv.next, %13
  br i1 %14, label %.lr.ph, label %._crit_edge

._crit_edge:                                      ; preds = %.lr.ph, %0
  ret void
}